target datalayout = "e-m:e-p270:32:32-p271:32:32-p272:64:64-i64:64-i128:128-f80:128-n8:16:32:64-S128"
target triple = "x86_64-pc-linux-gnu"

%struct.TBMSharedIteratorState = type { i32, i32, i32, i32, i64, i64, i64, %struct.LWLock, i32, i32, i32 }
%struct.LWLock = type { i16, %struct.pg_atomic_uint32, %struct.proclist_head }
%struct.pg_atomic_uint32 = type { i32 }
%struct.proclist_head = type { i32, i32 }
%struct.TBMIterateResult = type { i32, i32, i8, [0 x i16] }
%struct.TBMSharedIterator = type { ptr, ptr, ptr, ptr, %struct.TBMIterateResult }

; Function Attrs: nounwind uwtable
define dso_local ptr @tbm_attach_shared_iterate(ptr noundef %0, i64 noundef %1) #0 {
  %3 = alloca ptr, align 8
  %4 = alloca i64, align 8
  %5 = alloca ptr, align 8
  %6 = alloca ptr, align 8
  store ptr %0, ptr %3, align 8
  store i64 %1, ptr %4, align 8
  call void @llvm.lifetime.start.p0(i64 8, ptr %5) #9
  call void @llvm.lifetime.start.p0(i64 8, ptr %6) #9
  %7 = call ptr @palloc0(i64 noundef 630)
  store ptr %7, ptr %5, align 8
  %8 = load ptr, ptr %3, align 8
  %9 = load i64, ptr %4, align 8
  %10 = call ptr @dsa_get_address(ptr noundef %8, i64 noundef %9)
  store ptr %10, ptr %6, align 8
  %11 = load ptr, ptr %6, align 8
  %12 = load ptr, ptr %5, align 8
  %13 = getelementptr inbounds nuw %struct.TBMSharedIterator, ptr %12, i32 0, i32 0
  store ptr %11, ptr %13, align 8
  %14 = load ptr, ptr %3, align 8
  %15 = load ptr, ptr %6, align 8
  %16 = getelementptr inbounds nuw %struct.TBMSharedIteratorState, ptr %15, i32 0, i32 4
  %17 = load i64, ptr %16, align 8
  %18 = call ptr @dsa_get_address(ptr noundef %14, i64 noundef %17)
  %19 = load ptr, ptr %5, align 8
  %20 = getelementptr inbounds nuw %struct.TBMSharedIterator, ptr %19, i32 0, i32 1
  store ptr %18, ptr %20, align 8
  %21 = load ptr, ptr %6, align 8
  %22 = getelementptr inbounds nuw %struct.TBMSharedIteratorState, ptr %21, i32 0, i32 2
  %23 = load i32, ptr %22, align 8
  %24 = icmp ne i32 %23, 0
  br i1 %24, label %25, label %33

25:                                               ; preds = %2
  %26 = load ptr, ptr %3, align 8
  %27 = load ptr, ptr %6, align 8
  %28 = getelementptr inbounds nuw %struct.TBMSharedIteratorState, ptr %27, i32 0, i32 5
  %29 = load i64, ptr %28, align 8
  %30 = call ptr @dsa_get_address(ptr noundef %26, i64 noundef %29)
  %31 = load ptr, ptr %5, align 8
  %32 = getelementptr inbounds nuw %struct.TBMSharedIterator, ptr %31, i32 0, i32 2
  store ptr %30, ptr %32, align 8
  br label %33

33:                                               ; preds = %25, %2
  %34 = load ptr, ptr %6, align 8
  %35 = getelementptr inbounds nuw %struct.TBMSharedIteratorState, ptr %34, i32 0, i32 3
  %36 = load i32, ptr %35, align 4
  %37 = icmp ne i32 %36, 0
  br i1 %37, label %38, label %46

38:                                               ; preds = %33
  %39 = load ptr, ptr %3, align 8
  %40 = load ptr, ptr %6, align 8
  %41 = getelementptr inbounds nuw %struct.TBMSharedIteratorState, ptr %40, i32 0, i32 6
  %42 = load i64, ptr %41, align 8
  %43 = call ptr @dsa_get_address(ptr noundef %39, i64 noundef %42)
  %44 = load ptr, ptr %5, align 8
  %45 = getelementptr inbounds nuw %struct.TBMSharedIterator, ptr %44, i32 0, i32 3
  store ptr %43, ptr %45, align 8
  br label %46

46:                                               ; preds = %38, %33
  %47 = load ptr, ptr %5, align 8
  call void @llvm.lifetime.end.p0(i64 8, ptr %6) #9
  call void @llvm.lifetime.end.p0(i64 8, ptr %5) #9
  ret ptr %47
}