; Function Attrs: nounwind uwtable
define dso_local ptr @tbm_attach_shared_iterate(ptr noundef %0, i64 noundef %1) local_unnamed_addr #0 {
  %3 = tail call ptr @palloc0(i64 noundef 630) #14
  %4 = tail call ptr @dsa_get_address(ptr noundef %0, i64 noundef %1) #14
  store ptr %4, ptr %3, align 8
  %5 = getelementptr inbounds nuw i8, ptr %4, i64 16
  %6 = load i64, ptr %5, align 8
  %7 = tail call ptr @dsa_get_address(ptr noundef %0, i64 noundef %6) #14
  %8 = getelementptr inbounds nuw i8, ptr %3, i64 8
  store ptr %7, ptr %8, align 8
  %9 = getelementptr inbounds nuw i8, ptr %4, i64 8
  %10 = load i32, ptr %9, align 8
  %.not = icmp eq i32 %10, 0
  br i1 %.not, label %16, label %11

11:                                               ; preds = %2
  %12 = getelementptr inbounds nuw i8, ptr %4, i64 24
  %13 = load i64, ptr %12, align 8
  %14 = tail call ptr @dsa_get_address(ptr noundef %0, i64 noundef %13) #14
  %15 = getelementptr inbounds nuw i8, ptr %3, i64 16
  store ptr %14, ptr %15, align 8
  br label %16

16:                                               ; preds = %11, %2
  %17 = getelementptr inbounds nuw i8, ptr %4, i64 12
  %18 = load i32, ptr %17, align 4
  %.not15 = icmp eq i32 %18, 0
  br i1 %.not15, label %24, label %19

19:                                               ; preds = %16
  %20 = getelementptr inbounds nuw i8, ptr %4, i64 32
  %21 = load i64, ptr %20, align 8
  %22 = tail call ptr @dsa_get_address(ptr noundef %0, i64 noundef %21) #14
  %23 = getelementptr inbounds nuw i8, ptr %3, i64 24
  store ptr %22, ptr %23, align 8
  br label %24

24:                                               ; preds = %19, %16
  ret ptr %3
}